; Function Attrs: mustprogress nofree norecurse nounwind willreturn memory(argmem: readwrite) uwtable
define dso_local noundef zeroext i1 @_ZN4absl12log_internal14LogFirstNState9ShouldLogEi(ptr noundef nonnull align 4 captures(none) dereferenceable(4) %0, i32 noundef %1) local_unnamed_addr #0 align 2 {
  %3 = load atomic i32, ptr %0 monotonic, align 4
  %4 = zext i32 %3 to i64
  %5 = sext i32 %1 to i64
  %6 = icmp slt i64 %4, %5
  br i1 %6, label %7, label %9

7:                                                ; preds = %2
  %8 = add i32 %3, 1
  store atomic i32 %8, ptr %0 monotonic, align 4
  br label %9

9:                                                ; preds = %2, %7
  ret i1 %6
}